; Function Attrs: nounwind sspstrong uwtable
define internal void @machine_set_audiodev(ptr noundef %obj, ptr noundef %value, ptr noundef %errp) #0 {
entry:
  %call.i = tail call ptr @object_dynamic_cast_assert(ptr noundef %obj, ptr noundef nonnull @.str.225, ptr noundef nonnull @.str.226, i32 noundef 23, ptr noundef nonnull @__func__.MACHINE) #16
  %call1 = tail call ptr @audio_state_by_name(ptr noundef %value, ptr noundef %errp) #16
  %tobool.not = icmp eq ptr %call1, null
  br i1 %tobool.not, label %return, label %if.end

if.end:                                           ; preds = %entry
  %audiodev = getelementptr inbounds nuw i8, ptr %call.i, i64 136
  %0 = load ptr, ptr %audiodev, align 8
  tail call void @g_free(ptr noundef %0) #16
  %call2 = tail call noalias ptr @g_strdup(ptr noundef %value) #16
  store ptr %call2, ptr %audiodev, align 8
  br label %return

return:                                           ; preds = %entry, %if.end
  ret void
}